; Function Attrs: mustprogress uwtable
define hidden noundef zeroext i16 @_ZNK2cv10ExifReader14getOrientationEm(ptr noundef nonnull readonly align 8 captures(none) dereferenceable(76) %0, i64 noundef %1) local_unnamed_addr #5 align 2 {
  %3 = add i64 %1, 9
  %4 = getelementptr inbounds nuw i8, ptr %0, i64 8
  %5 = load ptr, ptr %4, align 8, !tbaa !54
  %6 = load ptr, ptr %0, align 8, !tbaa !46
  %7 = ptrtoint ptr %5 to i64
  %8 = ptrtoint ptr %6 to i64
  %9 = sub i64 %7, %8
  %.not.i = icmp ult i64 %3, %9
  br i1 %.not.i, label %12, label %10

10:                                               ; preds = %2
  %11 = tail call ptr @__cxa_allocate_exception(i64 1) #25
  tail call void @__cxa_throw(ptr %11, ptr nonnull @_ZTIN12_GLOBAL__N_116ExifParsingErrorE, ptr null) #26
  unreachable

12:                                               ; preds = %2
  %13 = getelementptr inbounds nuw i8, ptr %0, i64 72
  %14 = load i32, ptr %13, align 8, !tbaa !34
  %15 = icmp eq i32 %14, 73
  %16 = getelementptr i8, ptr %6, i64 %1
  %17 = getelementptr i8, ptr %16, i64 8
  %18 = load i8, ptr %17, align 1, !tbaa !12
  %19 = zext i8 %18 to i16
  br i1 %15, label %20, label %26

20:                                               ; preds = %12
  %21 = getelementptr inbounds nuw i8, ptr %6, i64 %3
  %22 = load i8, ptr %21, align 1, !tbaa !12
  %23 = zext i8 %22 to i16
  %24 = shl nuw i16 %23, 8
  %25 = or disjoint i16 %24, %19
  br label %_ZNK2cv10ExifReader6getU16Em.exit

26:                                               ; preds = %12
  %27 = shl nuw i16 %19, 8
  %28 = getelementptr inbounds nuw i8, ptr %6, i64 %3
  %29 = load i8, ptr %28, align 1, !tbaa !12
  %30 = zext i8 %29 to i16
  %31 = or disjoint i16 %27, %30
  br label %_ZNK2cv10ExifReader6getU16Em.exit

_ZNK2cv10ExifReader6getU16Em.exit:                ; preds = %20, %26
  %.0.i = phi i16 [ %25, %20 ], [ %31, %26 ]
  ret i16 %.0.i
}